Archive member included because of file (symbol)

j:/dsdev/libnds/lib\libnds9.a(video.o)
                              arm9_main.o (vramSetBankA)
j:/dsdev/libnds/lib\libnds9.a(interrupts.o)
                              arm9_main.o (irqInit)
j:/dsdev/libnds/lib\libnds9.a(biosCalls.o)
                              arm9_main.o (swiWaitForVBlank)
j:/dsdev/libnds/lib\libnds9.a(interruptDispatcher.o)
                              j:/dsdev/libnds/lib\libnds9.a(interrupts.o) (IntrMain)
j:/dsdev/devkitarm/bin/../lib/gcc/arm-eabi/4.1.1/thumb\libgcc.a(_divsi3.o)
                              arm9_main.o (__aeabi_idivmod)
j:/dsdev/devkitarm/bin/../lib/gcc/arm-eabi/4.1.1/thumb\libgcc.a(_dvmd_tls.o)
                              j:/dsdev/devkitarm/bin/../lib/gcc/arm-eabi/4.1.1/thumb\libgcc.a(_divsi3.o) (__div0)
j:/dsdev/devkitarm/bin/../lib/gcc/arm-eabi/4.1.1/thumb\libgcc.a(_call_via_rX.o)
                              j:/dsdev/devkitarm/bin/../lib/gcc/arm-eabi/4.1.1/../../../../arm-eabi/lib/thumb/ds_arm9_crt0.o (_call_via_r3)
j:/dsdev/devkitarm/bin/../lib/gcc/arm-eabi/4.1.1/../../../../arm-eabi/lib/thumb\libg.a(lib_a-init.o)
                              j:/dsdev/devkitarm/bin/../lib/gcc/arm-eabi/4.1.1/../../../../arm-eabi/lib/thumb/ds_arm9_crt0.o (__libc_init_array)
j:/dsdev/devkitarm/bin/../lib/gcc/arm-eabi/4.1.1/../../../../arm-eabi/lib/thumb\libg.a(lib_a-rand.o)
                              arm9_main.o (rand)
j:/dsdev/devkitarm/bin/../lib/gcc/arm-eabi/4.1.1/../../../../arm-eabi/lib/thumb\libg.a(lib_a-impure.o)
                              j:/dsdev/devkitarm/bin/../lib/gcc/arm-eabi/4.1.1/../../../../arm-eabi/lib/thumb\libg.a(lib_a-rand.o) (_impure_ptr)
j:/dsdev/devkitarm/bin/../lib/gcc/arm-eabi/4.1.1/thumb\libgcc.a(_muldi3.o)
                              j:/dsdev/devkitarm/bin/../lib/gcc/arm-eabi/4.1.1/../../../../arm-eabi/lib/thumb\libg.a(lib_a-rand.o) (__aeabi_lmul)
j:/dsdev/devkitarm/bin/../lib/gcc/arm-eabi/4.1.1/../../../../arm-eabi/lib/thumb\libsysbase.a(malloc_vars.o)
                              j:/dsdev/devkitarm/bin/../lib/gcc/arm-eabi/4.1.1/../../../../arm-eabi/lib/thumb/ds_arm9_crt0.o (fake_heap_end)

Memory Configuration

Name             Origin             Length             Attributes
rom              0x08000000         0x02000000
ewram            0x02000000         0x003ff000
dtcm             0x0b000000         0x00004000
itcm             0x01000000         0x00008000
*default*        0x00000000         0xffffffff

Linker script and memory map

                0x01000000                __itcm_start = 0x1000000
                0x023ff000                __ewram_end = 0x23ff000
                0x023ff000                __eheap_end = 0x23ff000
                0x0b000000                __dtcm_start = 0xb000000
                0x0b004000                __dtcm_top = 0xb004000
                0x0b003ff8                __irq_flags = (__dtcm_top - 0x8)
                0x0b003ffc                __irq_vector = (__dtcm_top - 0x4)
                0x0b003f00                __sp_svc = (__dtcm_top - 0x100)
                0x0b003e00                __sp_irq = (__sp_svc - 0x100)
                0x0b003d00                __sp_usr = (__sp_irq - 0x100)

.init           0x02000000      0x22c
                0x02000000                __text_start = .
 *(.init)
 .init          0x02000000      0x220 j:/dsdev/devkitarm/bin/../lib/gcc/arm-eabi/4.1.1/../../../../arm-eabi/lib/thumb/ds_arm9_crt0.o
                0x02000000                _start
 .init          0x02000220        0x4 j:/dsdev/devkitarm/bin/../lib/gcc/arm-eabi/4.1.1/thumb/crti.o
                0x02000220                _init
 .init          0x02000224        0x8 j:/dsdev/devkitarm/bin/../lib/gcc/arm-eabi/4.1.1/thumb/crtn.o
                0x0200022c                . = ALIGN (0x4)

.plt
 *(.plt)

.text           0x02000230      0x7c8
 *(EXCLUDE_FILE(*.itcm*) .text)
 .text          0x02000230        0x0 j:/dsdev/devkitarm/bin/../lib/gcc/arm-eabi/4.1.1/../../../../arm-eabi/lib/thumb/ds_arm9_crt0.o
 .text          0x02000230        0x0 j:/dsdev/devkitarm/bin/../lib/gcc/arm-eabi/4.1.1/thumb/crti.o
 .text          0x02000230       0x70 j:/dsdev/devkitarm/bin/../lib/gcc/arm-eabi/4.1.1/thumb/crtbegin.o
 .text          0x020002a0      0x170 arm9_main.o
                0x020002ec                InitStars()
                0x02000370                MoveStar(Star*)
                0x020002bc                DrawStar(Star*)
                0x020003c0                main
                0x020002a0                ClearScreen()
                0x020002d4                EraseStar(Star*)
 .text          0x02000410      0x110 j:/dsdev/libnds/lib\libnds9.a(video.o)
                0x020004d0                vramSetBankF
                0x02000460                vramRestoreMainBanks
                0x020004f8                vramSetBankH
                0x020004a8                vramSetBankD
                0x020004bc                vramSetBankE
                0x020004e4                vramSetBankG
                0x02000454                vramRestorMainBanks
                0x02000480                vramSetBankB
                0x02000494                vramSetBankC
                0x0200050c                vramSetBankI
                0x02000410                vramSetMainBanks
                0x0200046c                vramSetBankA
 .text          0x02000520      0x208 j:/dsdev/libnds/lib\libnds9.a(interrupts.o)
                0x02000688                irqEnable
                0x02000524                irqSet
                0x020006dc                irqDisable
                0x0200058c                irqInit
                0x02000520                irqDummy
                0x02000658                irqInitHandler
                0x020005d8                irqClear
 *fill*         0x02000728        0x8 ff
 .text          0x02000730       0x70 j:/dsdev/libnds/lib\libnds9.a(biosCalls.o)
                0x02000740                swiSleep
                0x0200077a                swiDecompressLZSSVram
                0x02000762                swiFastCopy
                0x02000766                swiSqrt
                0x02000730                swiSoftReset
                0x0200076a                swiCRC16
                0x0200077e                swiDecompressHuffman
                0x02000796                swiSetHaltCR
                0x0200074c                swiRemainder
                0x02000772                swiUnpackBits
                0x02000776                swiDecompressLZSSWram
                0x02000792                swiDecodeDelta16
                0x02000734                swiDelay
                0x02000752                swiDivMod
                0x02000786                swiDecompressRLEVram
                0x02000782                swiDecompressRLEWram
                0x0200078e                swiDecodeDelta8
                0x02000748                swiDivide
                0x02000744                swiChangeSoundBias
                0x0200073c                swiWaitForVBlank
                0x02000738                swiIntrWait
                0x0200076e                swiIsDebugger
                0x0200078a                swiWaitForIRQ
                0x0200075e                swiCopy
 .text          0x020007a0        0x0 j:/dsdev/libnds/lib\libnds9.a(interruptDispatcher.o)
 .text          0x020007a0       0xa4 j:/dsdev/devkitarm/bin/../lib/gcc/arm-eabi/4.1.1/thumb\libgcc.a(_divsi3.o)
                0x020007a0                __aeabi_idiv
                0x020007a0                __divsi3
                0x02000834                __aeabi_idivmod
 .text          0x02000844        0x4 j:/dsdev/devkitarm/bin/../lib/gcc/arm-eabi/4.1.1/thumb\libgcc.a(_dvmd_tls.o)
                0x02000844                __aeabi_ldiv0
                0x02000844                __div0
                0x02000844                __aeabi_idiv0
 .text          0x02000848       0x3c j:/dsdev/devkitarm/bin/../lib/gcc/arm-eabi/4.1.1/thumb\libgcc.a(_call_via_rX.o)
                0x02000850                _call_via_r2
                0x02000860                _call_via_r6
                0x0200085c                _call_via_r5
                0x02000854                _call_via_r3
                0x02000874                _call_via_fp
                0x02000868                _call_via_r8
                0x02000864                _call_via_r7
                0x02000848                _call_via_r0
                0x02000870                _call_via_sl
                0x0200087c                _call_via_sp
                0x0200086c                _call_via_r9
                0x02000858                _call_via_r4
                0x0200084c                _call_via_r1
                0x02000878                _call_via_ip
                0x02000880                _call_via_lr
 .text          0x02000884       0x88 j:/dsdev/devkitarm/bin/../lib/gcc/arm-eabi/4.1.1/../../../../arm-eabi/lib/thumb\libg.a(lib_a-init.o)
                0x020008b4                __libc_init_array
                0x02000884                __libc_fini_array
 *fill*         0x0200090c        0x4 ff
 .text          0x02000910       0x58 j:/dsdev/devkitarm/bin/../lib/gcc/arm-eabi/4.1.1/../../../../arm-eabi/lib/thumb\libg.a(lib_a-rand.o)
                0x02000924                rand
                0x02000910                srand
 .text          0x02000968        0x0 j:/dsdev/devkitarm/bin/../lib/gcc/arm-eabi/4.1.1/../../../../arm-eabi/lib/thumb\libg.a(lib_a-impure.o)
 .text          0x02000968       0x84 j:/dsdev/devkitarm/bin/../lib/gcc/arm-eabi/4.1.1/thumb\libgcc.a(_muldi3.o)
                0x02000968                __aeabi_lmul
                0x02000968                __muldi3
 .text          0x020009ec        0x0 j:/dsdev/devkitarm/bin/../lib/gcc/arm-eabi/4.1.1/../../../../arm-eabi/lib/thumb\libsysbase.a(malloc_vars.o)
 .text          0x020009ec        0x0 j:/dsdev/devkitarm/bin/../lib/gcc/arm-eabi/4.1.1/thumb/crtend.o
 .text          0x020009ec        0x0 j:/dsdev/devkitarm/bin/../lib/gcc/arm-eabi/4.1.1/thumb/crtn.o
 *(.text.*)
 *(.stub)
 *(.gnu.warning)
 *(.gnu.linkonce.t*)
 *(.glue_7)
 .glue_7        0x020009ec        0x0 j:/dsdev/devkitarm/bin/../lib/gcc/arm-eabi/4.1.1/../../../../arm-eabi/lib/thumb/ds_arm9_crt0.o
 .glue_7        0x020009ec        0x0 j:/dsdev/devkitarm/bin/../lib/gcc/arm-eabi/4.1.1/thumb/crti.o
 .glue_7        0x020009ec        0x0 j:/dsdev/devkitarm/bin/../lib/gcc/arm-eabi/4.1.1/thumb/crtbegin.o
 .glue_7        0x020009ec        0x0 arm9_main.o
 .glue_7        0x020009ec        0x0 j:/dsdev/libnds/lib\libnds9.a(video.o)
 .glue_7        0x020009ec        0x0 j:/dsdev/libnds/lib\libnds9.a(interrupts.o)
 .glue_7        0x020009ec        0x0 j:/dsdev/libnds/lib\libnds9.a(biosCalls.o)
 .glue_7        0x020009ec        0x0 j:/dsdev/libnds/lib\libnds9.a(interruptDispatcher.o)
 .glue_7        0x020009ec        0x0 j:/dsdev/devkitarm/bin/../lib/gcc/arm-eabi/4.1.1/thumb\libgcc.a(_divsi3.o)
 .glue_7        0x020009ec        0x0 j:/dsdev/devkitarm/bin/../lib/gcc/arm-eabi/4.1.1/thumb\libgcc.a(_dvmd_tls.o)
 .glue_7        0x020009ec        0x0 j:/dsdev/devkitarm/bin/../lib/gcc/arm-eabi/4.1.1/thumb\libgcc.a(_call_via_rX.o)
 .glue_7        0x020009ec        0x0 j:/dsdev/devkitarm/bin/../lib/gcc/arm-eabi/4.1.1/../../../../arm-eabi/lib/thumb\libg.a(lib_a-init.o)
 .glue_7        0x020009ec        0x0 j:/dsdev/devkitarm/bin/../lib/gcc/arm-eabi/4.1.1/../../../../arm-eabi/lib/thumb\libg.a(lib_a-rand.o)
 .glue_7        0x020009ec        0x0 j:/dsdev/devkitarm/bin/../lib/gcc/arm-eabi/4.1.1/../../../../arm-eabi/lib/thumb\libg.a(lib_a-impure.o)
 .glue_7        0x020009ec        0x0 j:/dsdev/devkitarm/bin/../lib/gcc/arm-eabi/4.1.1/thumb\libgcc.a(_muldi3.o)
 .glue_7        0x020009ec        0x0 j:/dsdev/devkitarm/bin/../lib/gcc/arm-eabi/4.1.1/../../../../arm-eabi/lib/thumb\libsysbase.a(malloc_vars.o)
 .glue_7        0x020009ec        0xc j:/dsdev/devkitarm/bin/../lib/gcc/arm-eabi/4.1.1/thumb/crtend.o
                0x020009ec                ___call_via_r3_from_arm
 .glue_7        0x020009f8        0x0 j:/dsdev/devkitarm/bin/../lib/gcc/arm-eabi/4.1.1/thumb/crtn.o
 *(.glue_7t)
 .glue_7t       0x020009f8        0x0 j:/dsdev/devkitarm/bin/../lib/gcc/arm-eabi/4.1.1/../../../../arm-eabi/lib/thumb/ds_arm9_crt0.o
 .glue_7t       0x020009f8        0x0 j:/dsdev/devkitarm/bin/../lib/gcc/arm-eabi/4.1.1/thumb/crti.o
 .glue_7t       0x020009f8        0x0 j:/dsdev/devkitarm/bin/../lib/gcc/arm-eabi/4.1.1/thumb/crtbegin.o
 .glue_7t       0x020009f8        0x0 arm9_main.o
 .glue_7t       0x020009f8        0x0 j:/dsdev/libnds/lib\libnds9.a(video.o)
 .glue_7t       0x020009f8        0x0 j:/dsdev/libnds/lib\libnds9.a(interrupts.o)
 .glue_7t       0x020009f8        0x0 j:/dsdev/libnds/lib\libnds9.a(biosCalls.o)
 .glue_7t       0x020009f8        0x0 j:/dsdev/libnds/lib\libnds9.a(interruptDispatcher.o)
 .glue_7t       0x020009f8        0x0 j:/dsdev/devkitarm/bin/../lib/gcc/arm-eabi/4.1.1/thumb\libgcc.a(_divsi3.o)
 .glue_7t       0x020009f8        0x0 j:/dsdev/devkitarm/bin/../lib/gcc/arm-eabi/4.1.1/thumb\libgcc.a(_dvmd_tls.o)
 .glue_7t       0x020009f8        0x0 j:/dsdev/devkitarm/bin/../lib/gcc/arm-eabi/4.1.1/thumb\libgcc.a(_call_via_rX.o)
 .glue_7t       0x020009f8        0x0 j:/dsdev/devkitarm/bin/../lib/gcc/arm-eabi/4.1.1/../../../../arm-eabi/lib/thumb\libg.a(lib_a-init.o)
 .glue_7t       0x020009f8        0x0 j:/dsdev/devkitarm/bin/../lib/gcc/arm-eabi/4.1.1/../../../../arm-eabi/lib/thumb\libg.a(lib_a-rand.o)
 .glue_7t       0x020009f8        0x0 j:/dsdev/devkitarm/bin/../lib/gcc/arm-eabi/4.1.1/../../../../arm-eabi/lib/thumb\libg.a(lib_a-impure.o)
 .glue_7t       0x020009f8        0x0 j:/dsdev/devkitarm/bin/../lib/gcc/arm-eabi/4.1.1/thumb\libgcc.a(_muldi3.o)
 .glue_7t       0x020009f8        0x0 j:/dsdev/devkitarm/bin/../lib/gcc/arm-eabi/4.1.1/../../../../arm-eabi/lib/thumb\libsysbase.a(malloc_vars.o)
 .glue_7t       0x020009f8        0x0 j:/dsdev/devkitarm/bin/../lib/gcc/arm-eabi/4.1.1/thumb/crtend.o
 .glue_7t       0x020009f8        0x0 j:/dsdev/devkitarm/bin/../lib/gcc/arm-eabi/4.1.1/thumb/crtn.o
                0x020009f8                . = ALIGN (0x4)

.fini           0x020009f8        0xc
 *(.fini)
 .fini          0x020009f8        0x4 j:/dsdev/devkitarm/bin/../lib/gcc/arm-eabi/4.1.1/thumb/crti.o
                0x020009f8                _fini
 .fini          0x020009fc        0x8 j:/dsdev/devkitarm/bin/../lib/gcc/arm-eabi/4.1.1/thumb/crtn.o
                0x02000a04                __text_end = .

.rodata         0x02000a04        0x8
 *(.rodata)
 .rodata        0x02000a04        0x4 j:/dsdev/devkitarm/bin/../lib/gcc/arm-eabi/4.1.1/../../../../arm-eabi/lib/thumb\libg.a(lib_a-impure.o)
                0x02000a04                _global_impure_ptr
 *all.rodata*(*)
 *(.roda)
 *(.rodata.*)
 .rodata.str1.4
                0x02000a08        0x4 j:/dsdev/devkitarm/bin/../lib/gcc/arm-eabi/4.1.1/../../../../arm-eabi/lib/thumb\libg.a(lib_a-impure.o)
 *(.gnu.linkonce.r*)
                0x02000a0c                . = ALIGN (0x4)

.ARM.extab
 *(.ARM.extab* .gnu.linkonce.armextab.*)
                0x02000a0c                __exidx_start = .

.ARM.exidx
 *(.ARM.exidx* .gnu.linkonce.armexidx.*)
                0x02000a0c                __exidx_end = .
                0x02000a0c                . = ALIGN (0x4)
                0x02000a0c                PROVIDE (__preinit_array_start, .)

.preinit_array
 *(.preinit_array)
                0x02000a0c                PROVIDE (__preinit_array_end, .)
                0x02000a0c                PROVIDE (__init_array_start, .)

.init_array     0x02000a0c        0x4
 *(.init_array)
 .init_array    0x02000a0c        0x4 j:/dsdev/devkitarm/bin/../lib/gcc/arm-eabi/4.1.1/thumb/crtbegin.o
                0x02000a10                PROVIDE (__init_array_end, .)
                0x02000a10                PROVIDE (__fini_array_start, .)

.fini_array     0x02000a10        0x4
 *(.fini_array)
 .fini_array    0x02000a10        0x4 j:/dsdev/devkitarm/bin/../lib/gcc/arm-eabi/4.1.1/thumb/crtbegin.o
                0x02000a14                PROVIDE (__fini_array_end, .)

.ctors          0x02000a14        0x0
 *crtbegin.o(.ctors)
 *(EXCLUDE_FILE(*crtend.o) .ctors)
 *(SORT(.ctors.*))
 *(.ctors)
                0x02000a14                . = ALIGN (0x4)

.dtors          0x02000a14        0x0
 *crtbegin.o(.dtors)
 *(EXCLUDE_FILE(*crtend.o) .dtors)
 *(SORT(.dtors.*))
 *(.dtors)
                0x02000a14                . = ALIGN (0x4)

.eh_frame       0x02000a14        0x4
 *(.eh_frame)
 .eh_frame      0x02000a14        0x0 j:/dsdev/devkitarm/bin/../lib/gcc/arm-eabi/4.1.1/thumb/crtbegin.o
 .eh_frame      0x02000a14        0x4 j:/dsdev/devkitarm/bin/../lib/gcc/arm-eabi/4.1.1/thumb/crtend.o
                0x02000a18                . = ALIGN (0x4)

.gcc_except_table
                0x02000a18        0x0
 *(.gcc_except_table)
                0x02000a18                . = ALIGN (0x4)

.jcr            0x02000a18        0x4
 *(.jcr)
 .jcr           0x02000a18        0x0 j:/dsdev/devkitarm/bin/../lib/gcc/arm-eabi/4.1.1/thumb/crtbegin.o
 .jcr           0x02000a18        0x4 j:/dsdev/devkitarm/bin/../lib/gcc/arm-eabi/4.1.1/thumb/crtend.o

.got
 *(.got.plt)
 *(.got)
 *(.rel.got)

.ewram          0x02000a1c        0x0
                0x02000a1c                __ewram_start = <code 342> (.)
 *(.ewram)
 *ewram.*(.text)
                0x02000a1c                . = ALIGN (0x4)

.data           0x02000a1c      0x41c
                0x02000a1c                __data_start = <code 342> (.)
 *(.data)
 .data          0x02000a1c        0x0 j:/dsdev/devkitarm/bin/../lib/gcc/arm-eabi/4.1.1/../../../../arm-eabi/lib/thumb/ds_arm9_crt0.o
 .data          0x02000a1c        0x0 j:/dsdev/devkitarm/bin/../lib/gcc/arm-eabi/4.1.1/thumb/crti.o
 .data          0x02000a1c        0x4 j:/dsdev/devkitarm/bin/../lib/gcc/arm-eabi/4.1.1/thumb/crtbegin.o
                0x02000a1c                __dso_handle
 .data          0x02000a20        0x0 arm9_main.o
 .data          0x02000a20        0x0 j:/dsdev/libnds/lib\libnds9.a(video.o)
 .data          0x02000a20        0x0 j:/dsdev/libnds/lib\libnds9.a(interrupts.o)
 .data          0x02000a20        0x0 j:/dsdev/libnds/lib\libnds9.a(biosCalls.o)
 .data          0x02000a20        0x0 j:/dsdev/libnds/lib\libnds9.a(interruptDispatcher.o)
 .data          0x02000a20        0x0 j:/dsdev/devkitarm/bin/../lib/gcc/arm-eabi/4.1.1/thumb\libgcc.a(_divsi3.o)
 .data          0x02000a20        0x0 j:/dsdev/devkitarm/bin/../lib/gcc/arm-eabi/4.1.1/thumb\libgcc.a(_dvmd_tls.o)
 .data          0x02000a20        0x0 j:/dsdev/devkitarm/bin/../lib/gcc/arm-eabi/4.1.1/thumb\libgcc.a(_call_via_rX.o)
 .data          0x02000a20        0x0 j:/dsdev/devkitarm/bin/../lib/gcc/arm-eabi/4.1.1/../../../../arm-eabi/lib/thumb\libg.a(lib_a-init.o)
 .data          0x02000a20        0x0 j:/dsdev/devkitarm/bin/../lib/gcc/arm-eabi/4.1.1/../../../../arm-eabi/lib/thumb\libg.a(lib_a-rand.o)
 *fill*         0x02000a20        0x0 ff
 .data          0x02000a20      0x418 j:/dsdev/devkitarm/bin/../lib/gcc/arm-eabi/4.1.1/../../../../arm-eabi/lib/thumb\libg.a(lib_a-impure.o)
                0x02000a20                _impure_ptr
 .data          0x02000e38        0x0 j:/dsdev/devkitarm/bin/../lib/gcc/arm-eabi/4.1.1/thumb\libgcc.a(_muldi3.o)
 .data          0x02000e38        0x0 j:/dsdev/devkitarm/bin/../lib/gcc/arm-eabi/4.1.1/../../../../arm-eabi/lib/thumb\libsysbase.a(malloc_vars.o)
 .data          0x02000e38        0x0 j:/dsdev/devkitarm/bin/../lib/gcc/arm-eabi/4.1.1/thumb/crtend.o
 .data          0x02000e38        0x0 j:/dsdev/devkitarm/bin/../lib/gcc/arm-eabi/4.1.1/thumb/crtn.o
 *(.data.*)
 *(.gnu.linkonce.d*)
                0x02000e38                . = ALIGN (0x4)
                0x02000e38                __data_end = <code 342> (.)
                0x02000e38                __dtcm_lma = .

.dtcm           0x0b000000        0x0 load address 0x02000e38
 *(.dtcm)
 *(.dtcm.*)
                0x0b000000                . = ALIGN (0x4)
                0x0b000000                __dtcm_end = <code 342> (.)
                0x02000e38                __itcm_lma = (__dtcm_lma + SIZEOF (.dtcm))

.itcm           0x01000000      0x190 load address 0x02000e38
 *(.itcm)
 .itcm          0x01000000       0xc8 j:/dsdev/libnds/lib\libnds9.a(interrupts.o)
                0x01000000                irqTable
 .itcm          0x010000c8       0xc8 j:/dsdev/libnds/lib\libnds9.a(interruptDispatcher.o)
                0x010000c8                IntrMain
 *itcm.*(.text)
                0x01000190                . = ALIGN (0x4)
                0x01000190                __itcm_end = <code 342> (.)

.sbss           0x0b000000        0x0
                0x0b000000                __sbss_start = <code 342> (.)
                0x0b000000                __sbss_start__ = <code 342> (.)
 *(.sbss)
                0x0b000000                . = ALIGN (0x4)
                0x0b000000                __sbss_end = <code 342> (.)
                0x02000fc8                __bss_lma = (__itcm_lma + SIZEOF (.itcm))
                0x02000fc8                __appended_data = (__itcm_lma + SIZEOF (.itcm))

.bss            0x02000fc8      0x2a4 load address 0x02000fc8
                0x02000fc8                __bss_start = <code 342> (.)
                0x02000fc8                __bss_start__ = <code 342> (.)
 *(.dynbss)
 *(.gnu.linkonce.b*)
 *(.bss*)
 .bss           0x02000fc8        0x0 j:/dsdev/devkitarm/bin/../lib/gcc/arm-eabi/4.1.1/../../../../arm-eabi/lib/thumb/ds_arm9_crt0.o
 .bss           0x02000fc8        0x0 j:/dsdev/devkitarm/bin/../lib/gcc/arm-eabi/4.1.1/thumb/crti.o
 .bss           0x02000fc8       0x1c j:/dsdev/devkitarm/bin/../lib/gcc/arm-eabi/4.1.1/thumb/crtbegin.o
 .bss           0x02000fe4      0x280 arm9_main.o
                0x02000fe4                stars
 .bss           0x02001264        0x0 j:/dsdev/libnds/lib\libnds9.a(video.o)
 .bss           0x02001264        0x0 j:/dsdev/libnds/lib\libnds9.a(interrupts.o)
 .bss           0x02001264        0x0 j:/dsdev/libnds/lib\libnds9.a(biosCalls.o)
 .bss           0x02001264        0x0 j:/dsdev/libnds/lib\libnds9.a(interruptDispatcher.o)
 .bss           0x02001264        0x0 j:/dsdev/devkitarm/bin/../lib/gcc/arm-eabi/4.1.1/thumb\libgcc.a(_divsi3.o)
 .bss           0x02001264        0x0 j:/dsdev/devkitarm/bin/../lib/gcc/arm-eabi/4.1.1/thumb\libgcc.a(_dvmd_tls.o)
 .bss           0x02001264        0x0 j:/dsdev/devkitarm/bin/../lib/gcc/arm-eabi/4.1.1/thumb\libgcc.a(_call_via_rX.o)
 .bss           0x02001264        0x0 j:/dsdev/devkitarm/bin/../lib/gcc/arm-eabi/4.1.1/../../../../arm-eabi/lib/thumb\libg.a(lib_a-init.o)
 .bss           0x02001264        0x0 j:/dsdev/devkitarm/bin/../lib/gcc/arm-eabi/4.1.1/../../../../arm-eabi/lib/thumb\libg.a(lib_a-rand.o)
 .bss           0x02001264        0x0 j:/dsdev/devkitarm/bin/../lib/gcc/arm-eabi/4.1.1/../../../../arm-eabi/lib/thumb\libg.a(lib_a-impure.o)
 .bss           0x02001264        0x0 j:/dsdev/devkitarm/bin/../lib/gcc/arm-eabi/4.1.1/thumb\libgcc.a(_muldi3.o)
 .bss           0x02001264        0x8 j:/dsdev/devkitarm/bin/../lib/gcc/arm-eabi/4.1.1/../../../../arm-eabi/lib/thumb\libsysbase.a(malloc_vars.o)
                0x02001268                fake_heap_start
                0x02001264                fake_heap_end
 .bss           0x0200126c        0x0 j:/dsdev/devkitarm/bin/../lib/gcc/arm-eabi/4.1.1/thumb/crtend.o
 .bss           0x0200126c        0x0 j:/dsdev/devkitarm/bin/../lib/gcc/arm-eabi/4.1.1/thumb/crtn.o
 *(COMMON)
                0x0200126c                . = ALIGN (0x4)
                0x0200126c                __bss_end = <code 342> (.)
                0x0200126c                __bss_end__ = __bss_end
                0x0200126c                _end = .
                0x0200126c                __end__ = .
                0x0200126c                PROVIDE (end, _end)

.stab
 *(.stab)

.stabstr
 *(.stabstr)

.stab.excl
 *(.stab.excl)

.stab.exclstr
 *(.stab.exclstr)

.stab.index
 *(.stab.index)

.stab.indexstr
 *(.stab.indexstr)

.comment        0x00000000      0x19a
 *(.comment)
 .comment       0x00000000       0x29 j:/dsdev/devkitarm/bin/../lib/gcc/arm-eabi/4.1.1/thumb/crtbegin.o
 .comment       0x00000029       0x29 arm9_main.o
 .comment       0x00000052       0x29 j:/dsdev/libnds/lib\libnds9.a(video.o)
 .comment       0x0000007b       0x29 j:/dsdev/libnds/lib\libnds9.a(interrupts.o)
 .comment       0x000000a4       0x29 j:/dsdev/devkitarm/bin/../lib/gcc/arm-eabi/4.1.1/../../../../arm-eabi/lib/thumb\libg.a(lib_a-init.o)
 .comment       0x000000cd       0x29 j:/dsdev/devkitarm/bin/../lib/gcc/arm-eabi/4.1.1/../../../../arm-eabi/lib/thumb\libg.a(lib_a-rand.o)
 .comment       0x000000f6       0x29 j:/dsdev/devkitarm/bin/../lib/gcc/arm-eabi/4.1.1/../../../../arm-eabi/lib/thumb\libg.a(lib_a-impure.o)
 .comment       0x0000011f       0x29 j:/dsdev/devkitarm/bin/../lib/gcc/arm-eabi/4.1.1/thumb\libgcc.a(_muldi3.o)
 .comment       0x00000148       0x29 j:/dsdev/devkitarm/bin/../lib/gcc/arm-eabi/4.1.1/../../../../arm-eabi/lib/thumb\libsysbase.a(malloc_vars.o)
 .comment       0x00000171       0x29 j:/dsdev/devkitarm/bin/../lib/gcc/arm-eabi/4.1.1/thumb/crtend.o

.debug
 *(.debug)

.line
 *(.line)

.debug_srcinfo
 *(.debug_srcinfo)

.debug_sfnames
 *(.debug_sfnames)

.debug_aranges  0x00000000       0xb0
 *(.debug_aranges)
 .debug_aranges
                0x00000000       0x28 j:/dsdev/devkitarm/bin/../lib/gcc/arm-eabi/4.1.1/thumb/crti.o
 .debug_aranges
                0x00000028       0x20 arm9_main.o
 .debug_aranges
                0x00000048       0x20 j:/dsdev/libnds/lib\libnds9.a(video.o)
 .debug_aranges
                0x00000068       0x20 j:/dsdev/libnds/lib\libnds9.a(interrupts.o)
 .debug_aranges
                0x00000088       0x28 j:/dsdev/devkitarm/bin/../lib/gcc/arm-eabi/4.1.1/thumb/crtn.o

.debug_pubnames
                0x00000000      0x1dc
 *(.debug_pubnames)
 .debug_pubnames
                0x00000000       0x6b arm9_main.o
 .debug_pubnames
                0x0000006b       0xf1 j:/dsdev/libnds/lib\libnds9.a(video.o)
 .debug_pubnames
                0x0000015c       0x80 j:/dsdev/libnds/lib\libnds9.a(interrupts.o)

.debug_info     0x00000000      0xae3
 *(.debug_info)
 .debug_info    0x00000000       0x5b j:/dsdev/devkitarm/bin/../lib/gcc/arm-eabi/4.1.1/thumb/crti.o
 .debug_info    0x0000005b      0x29b arm9_main.o
 .debug_info    0x000002f6      0x567 j:/dsdev/libnds/lib\libnds9.a(video.o)
 .debug_info    0x0000085d      0x22b j:/dsdev/libnds/lib\libnds9.a(interrupts.o)
 .debug_info    0x00000a88       0x5b j:/dsdev/devkitarm/bin/../lib/gcc/arm-eabi/4.1.1/thumb/crtn.o

.debug_abbrev   0x00000000      0x38c
 *(.debug_abbrev)
 .debug_abbrev  0x00000000       0x10 j:/dsdev/devkitarm/bin/../lib/gcc/arm-eabi/4.1.1/thumb/crti.o
 .debug_abbrev  0x00000010      0x15e arm9_main.o
 .debug_abbrev  0x0000016e       0xd9 j:/dsdev/libnds/lib\libnds9.a(video.o)
 .debug_abbrev  0x00000247      0x135 j:/dsdev/libnds/lib\libnds9.a(interrupts.o)
 .debug_abbrev  0x0000037c       0x10 j:/dsdev/devkitarm/bin/../lib/gcc/arm-eabi/4.1.1/thumb/crtn.o

.debug_line     0x00000000      0x3cd
 *(.debug_line)
 .debug_line    0x00000000       0x49 j:/dsdev/devkitarm/bin/../lib/gcc/arm-eabi/4.1.1/thumb/crti.o
 .debug_line    0x00000049      0x104 arm9_main.o
 .debug_line    0x0000014d      0x100 j:/dsdev/libnds/lib\libnds9.a(video.o)
 .debug_line    0x0000024d       0xff j:/dsdev/libnds/lib\libnds9.a(interrupts.o)
 .debug_line    0x0000034c       0x81 j:/dsdev/devkitarm/bin/../lib/gcc/arm-eabi/4.1.1/thumb/crtn.o

.debug_frame    0x00000000      0x224
 *(.debug_frame)
 .debug_frame   0x00000000       0x98 arm9_main.o
 .debug_frame   0x00000098       0xdc j:/dsdev/libnds/lib\libnds9.a(video.o)
 .debug_frame   0x00000174       0xb0 j:/dsdev/libnds/lib\libnds9.a(interrupts.o)

.debug_str      0x00000000      0xbd5
 *(.debug_str)
 .debug_str     0x00000000      0x195 arm9_main.o
                                0x1ce (size before relaxing)
 .debug_str     0x00000195      0x97d j:/dsdev/libnds/lib\libnds9.a(video.o)
                                0x9fa (size before relaxing)
 .debug_str     0x00000b12       0xc3 j:/dsdev/libnds/lib\libnds9.a(interrupts.o)
                                0x18b (size before relaxing)

.debug_loc      0x00000000      0x30e
 *(.debug_loc)
 .debug_loc     0x00000000       0xb0 arm9_main.o
 .debug_loc     0x000000b0      0x129 j:/dsdev/libnds/lib\libnds9.a(video.o)
 .debug_loc     0x000001d9      0x135 j:/dsdev/libnds/lib\libnds9.a(interrupts.o)

.debug_macinfo
 *(.debug_macinfo)

.debug_weaknames
 *(.debug_weaknames)

.debug_funcnames
 *(.debug_funcnames)

.debug_typenames
 *(.debug_typenames)

.debug_varnames
 *(.debug_varnames)

.stack          0x00080000        0x0
                0x00080000                _stack = .
 *(.stack)
LOAD j:/dsdev/devkitarm/bin/../lib/gcc/arm-eabi/4.1.1/../../../../arm-eabi/lib/thumb/ds_arm9_crt0.o
LOAD j:/dsdev/devkitarm/bin/../lib/gcc/arm-eabi/4.1.1/thumb/crti.o
LOAD j:/dsdev/devkitarm/bin/../lib/gcc/arm-eabi/4.1.1/thumb/crtbegin.o
LOAD arm9_main.o
LOAD j:/dsdev/libnds/lib\libnds9.a
LOAD j:/dsdev/devkitarm/bin/../lib/gcc/arm-eabi/4.1.1/../../../../arm-eabi/lib/thumb\libstdc++.a
LOAD j:/dsdev/devkitarm/bin/../lib/gcc/arm-eabi/4.1.1/../../../../arm-eabi/lib/thumb\libm.a
START GROUP
LOAD j:/dsdev/devkitarm/bin/../lib/gcc/arm-eabi/4.1.1/thumb\libgcc.a
LOAD j:/dsdev/devkitarm/bin/../lib/gcc/arm-eabi/4.1.1/../../../../arm-eabi/lib/thumb\libg.a
LOAD j:/dsdev/devkitarm/bin/../lib/gcc/arm-eabi/4.1.1/../../../../arm-eabi/lib/thumb\libc.a
END GROUP
START GROUP
LOAD j:/dsdev/devkitarm/bin/../lib/gcc/arm-eabi/4.1.1/../../../../arm-eabi/lib/thumb\libsysbase.a
LOAD j:/dsdev/devkitarm/bin/../lib/gcc/arm-eabi/4.1.1/../../../../arm-eabi/lib/thumb\libc.a
END GROUP
LOAD j:/dsdev/devkitarm/bin/../lib/gcc/arm-eabi/4.1.1/thumb/crtend.o
LOAD j:/dsdev/devkitarm/bin/../lib/gcc/arm-eabi/4.1.1/thumb/crtn.o
OUTPUT(j:/dsdev/demo1/demo1.elf elf32-littlearm)

.ARM.attributes
                0x00000000       0x10
 .ARM.attributes
                0x00000000       0x1e j:/dsdev/devkitarm/bin/../lib/gcc/arm-eabi/4.1.1/../../../../arm-eabi/lib/thumb/ds_arm9_crt0.o
 .ARM.attributes
                0x0000001e       0x1e j:/dsdev/devkitarm/bin/../lib/gcc/arm-eabi/4.1.1/thumb/crti.o
 .ARM.attributes
                0x0000003c       0x1e j:/dsdev/devkitarm/bin/../lib/gcc/arm-eabi/4.1.1/thumb/crtbegin.o
 .ARM.attributes
                0x0000005a       0x1e arm9_main.o
 .ARM.attributes
                0x00000078       0x19 j:/dsdev/libnds/lib\libnds9.a(video.o)
 .ARM.attributes
                0x00000091       0x19 j:/dsdev/libnds/lib\libnds9.a(interrupts.o)
 .ARM.attributes
                0x000000aa       0x19 j:/dsdev/libnds/lib\libnds9.a(biosCalls.o)
 .ARM.attributes
                0x000000c3       0x19 j:/dsdev/libnds/lib\libnds9.a(interruptDispatcher.o)
 .ARM.attributes
                0x000000dc       0x1e j:/dsdev/devkitarm/bin/../lib/gcc/arm-eabi/4.1.1/thumb\libgcc.a(_divsi3.o)
 .ARM.attributes
                0x000000fa       0x1e j:/dsdev/devkitarm/bin/../lib/gcc/arm-eabi/4.1.1/thumb\libgcc.a(_dvmd_tls.o)
 .ARM.attributes
                0x00000118       0x1e j:/dsdev/devkitarm/bin/../lib/gcc/arm-eabi/4.1.1/thumb\libgcc.a(_call_via_rX.o)
 .ARM.attributes
                0x00000136       0x1e j:/dsdev/devkitarm/bin/../lib/gcc/arm-eabi/4.1.1/../../../../arm-eabi/lib/thumb\libg.a(lib_a-init.o)
 .ARM.attributes
                0x00000154       0x1e j:/dsdev/devkitarm/bin/../lib/gcc/arm-eabi/4.1.1/../../../../arm-eabi/lib/thumb\libg.a(lib_a-rand.o)
 .ARM.attributes
                0x00000172       0x1c j:/dsdev/devkitarm/bin/../lib/gcc/arm-eabi/4.1.1/../../../../arm-eabi/lib/thumb\libg.a(lib_a-impure.o)
 .ARM.attributes
                0x0000018e       0x1e j:/dsdev/devkitarm/bin/../lib/gcc/arm-eabi/4.1.1/thumb\libgcc.a(_muldi3.o)
 .ARM.attributes
                0x000001ac       0x1c j:/dsdev/devkitarm/bin/../lib/gcc/arm-eabi/4.1.1/../../../../arm-eabi/lib/thumb\libsysbase.a(malloc_vars.o)
 .ARM.attributes
                0x000001c8       0x1c j:/dsdev/devkitarm/bin/../lib/gcc/arm-eabi/4.1.1/thumb/crtend.o
 .ARM.attributes
                0x000001e4       0x1e j:/dsdev/devkitarm/bin/../lib/gcc/arm-eabi/4.1.1/thumb/crtn.o
